; ModuleID = '27/1396.c'
source_filename = "27/1396.c"
target datalayout = "e-m:e-p270:32:32-p271:32:32-p272:64:64-i64:64-f80:128-n8:16:32:64-S128"
target triple = "x86_64-pc-linux-gnu"

@.str = private unnamed_addr constant [3 x i8] c"%d\00", align 1
@.str.1 = private unnamed_addr constant [10 x i8] c"%lf%lf%lf\00", align 1
@.str.2 = private unnamed_addr constant [19 x i8] c"x1=%.5lf;x2=%.5lf\0A\00", align 1
@.str.3 = private unnamed_addr constant [13 x i8] c"x1=x2=%.5lf\0A\00", align 1
@.str.4 = private unnamed_addr constant [33 x i8] c"x1=%.5lf+%.5lfi;x2=%.5lf-%.5lfi\0A\00", align 1

; Function Attrs: noinline nounwind uwtable
define dso_local i32 @main() #0 {
  %1 = alloca i32, align 4
  %2 = alloca i32, align 4
  %3 = alloca i32, align 4
  %4 = alloca double, align 8
  %5 = alloca double, align 8
  %6 = alloca double, align 8
  %7 = alloca double, align 8
  %8 = alloca double, align 8
  %9 = alloca double, align 8
  %10 = alloca double, align 8
  store i32 0, i32* %1, align 4
  %11 = call i32 (i8*, ...) @__isoc99_scanf(i8* getelementptr inbounds ([3 x i8], [3 x i8]* @.str, i64 0, i64 0), i32* %2)
  store i32 1, i32* %3, align 4
  br label %12

12:                                               ; preds = %128, %0
  %13 = load i32, i32* %3, align 4
  %14 = load i32, i32* %2, align 4
  %15 = icmp sle i32 %13, %14
  br i1 %15, label %16, label %131

16:                                               ; preds = %12
  %17 = call i32 (i8*, ...) @__isoc99_scanf(i8* getelementptr inbounds ([10 x i8], [10 x i8]* @.str.1, i64 0, i64 0), double* %4, double* %5, double* %6)
  %18 = load double, double* %5, align 8
  %19 = load double, double* %5, align 8
  %20 = fmul double %18, %19
  %21 = load double, double* %4, align 8
  %22 = fmul double 4.000000e+00, %21
  %23 = load double, double* %6, align 8
  %24 = fmul double %22, %23
  %25 = fsub double %20, %24
  %26 = fcmp ogt double %25, 0.000000e+00
  br i1 %26, label %27, label %61

27:                                               ; preds = %16
  %28 = load double, double* %5, align 8
  %29 = fneg double %28
  %30 = load double, double* %5, align 8
  %31 = load double, double* %5, align 8
  %32 = fmul double %30, %31
  %33 = load double, double* %4, align 8
  %34 = fmul double 4.000000e+00, %33
  %35 = load double, double* %6, align 8
  %36 = fmul double %34, %35
  %37 = fsub double %32, %36
  %38 = call double @sqrt(double %37) #3
  %39 = fadd double %29, %38
  %40 = load double, double* %4, align 8
  %41 = fmul double 2.000000e+00, %40
  %42 = fdiv double %39, %41
  store double %42, double* %7, align 8
  %43 = load double, double* %5, align 8
  %44 = fneg double %43
  %45 = load double, double* %5, align 8
  %46 = load double, double* %5, align 8
  %47 = fmul double %45, %46
  %48 = load double, double* %4, align 8
  %49 = fmul double 4.000000e+00, %48
  %50 = load double, double* %6, align 8
  %51 = fmul double %49, %50
  %52 = fsub double %47, %51
  %53 = call double @sqrt(double %52) #3
  %54 = fsub double %44, %53
  %55 = load double, double* %4, align 8
  %56 = fmul double 2.000000e+00, %55
  %57 = fdiv double %54, %56
  store double %57, double* %8, align 8
  %58 = load double, double* %7, align 8
  %59 = load double, double* %8, align 8
  %60 = call i32 (i8*, ...) @printf(i8* getelementptr inbounds ([19 x i8], [19 x i8]* @.str.2, i64 0, i64 0), double %58, double %59)
  br label %61

61:                                               ; preds = %27, %16
  %62 = load double, double* %5, align 8
  %63 = load double, double* %5, align 8
  %64 = fmul double %62, %63
  %65 = load double, double* %4, align 8
  %66 = fmul double 4.000000e+00, %65
  %67 = load double, double* %6, align 8
  %68 = fmul double %66, %67
  %69 = fsub double %64, %68
  %70 = fcmp oeq double %69, 0.000000e+00
  br i1 %70, label %71, label %89

71:                                               ; preds = %61
  %72 = load double, double* %5, align 8
  %73 = fneg double %72
  %74 = load double, double* %5, align 8
  %75 = load double, double* %5, align 8
  %76 = fmul double %74, %75
  %77 = load double, double* %4, align 8
  %78 = fmul double 4.000000e+00, %77
  %79 = load double, double* %6, align 8
  %80 = fmul double %78, %79
  %81 = fsub double %76, %80
  %82 = call double @sqrt(double %81) #3
  %83 = fadd double %73, %82
  %84 = load double, double* %4, align 8
  %85 = fmul double 2.000000e+00, %84
  %86 = fdiv double %83, %85
  store double %86, double* %7, align 8
  %87 = load double, double* %7, align 8
  %88 = call i32 (i8*, ...) @printf(i8* getelementptr inbounds ([13 x i8], [13 x i8]* @.str.3, i64 0, i64 0), double %87)
  br label %89

89:                                               ; preds = %71, %61
  %90 = load double, double* %5, align 8
  %91 = load double, double* %5, align 8
  %92 = fmul double %90, %91
  %93 = load double, double* %4, align 8
  %94 = fmul double 4.000000e+00, %93
  %95 = load double, double* %6, align 8
  %96 = fmul double %94, %95
  %97 = fsub double %92, %96
  %98 = fcmp olt double %97, 0.000000e+00
  br i1 %98, label %99, label %127

99:                                               ; preds = %89
  %100 = load double, double* %5, align 8
  %101 = fneg double %100
  %102 = load double, double* %4, align 8
  %103 = fmul double 2.000000e+00, %102
  %104 = fdiv double %101, %103
  store double %104, double* %9, align 8
  %105 = load double, double* %5, align 8
  %106 = fneg double %105
  %107 = load double, double* %5, align 8
  %108 = fmul double %106, %107
  %109 = load double, double* %4, align 8
  %110 = fmul double 4.000000e+00, %109
  %111 = load double, double* %6, align 8
  %112 = fmul double %110, %111
  %113 = fadd double %108, %112
  %114 = call double @sqrt(double %113) #3
  %115 = load double, double* %4, align 8
  %116 = fmul double 2.000000e+00, %115
  %117 = fdiv double %114, %116
  store double %117, double* %10, align 8
  %118 = load double, double* %9, align 8
  %119 = fcmp oeq double %118, 0.000000e+00
  br i1 %119, label %120, label %121

120:                                              ; preds = %99
  store double 0.000000e+00, double* %9, align 8
  br label %121

121:                                              ; preds = %120, %99
  %122 = load double, double* %9, align 8
  %123 = load double, double* %10, align 8
  %124 = load double, double* %9, align 8
  %125 = load double, double* %10, align 8
  %126 = call i32 (i8*, ...) @printf(i8* getelementptr inbounds ([33 x i8], [33 x i8]* @.str.4, i64 0, i64 0), double %122, double %123, double %124, double %125)
  br label %127

127:                                              ; preds = %121, %89
  br label %128

128:                                              ; preds = %127
  %129 = load i32, i32* %3, align 4
  %130 = add nsw i32 %129, 1
  store i32 %130, i32* %3, align 4
  br label %12

131:                                              ; preds = %12
  ret i32 0
}

declare dso_local i32 @__isoc99_scanf(i8*, ...) #1

; Function Attrs: nounwind
declare dso_local double @sqrt(double) #2

declare dso_local i32 @printf(i8*, ...) #1


!llvm.module.flags = !{!0}
!llvm.ident = !{!1}

!0 = !{i32 1, !"wchar_size", i32 4}
!1 = !{!"clang version 10.0.0-4ubuntu1 "}
